target datalayout = "e-m:e-p270:32:32-p271:32:32-p272:64:64-i64:64-i128:128-f80:128-n8:16:32:64-S128"
target triple = "x86_64-pc-linux-gnu"

%struct.QArrayData = type { %"class.QtPrivate::RefCount", i32, i32, i64 }
%"class.QtPrivate::RefCount" = type { %class.QBasicAtomicInteger }
%class.QBasicAtomicInteger = type { %"struct.std::atomic" }
%"struct.std::atomic" = type { %"struct.std::__atomic_base" }
%"struct.std::__atomic_base" = type { i32 }
%"struct.std::__detail::_List_node_header" = type { %"struct.std::__detail::_List_node_base", i64 }
%"struct.std::__detail::_List_node_base" = type { ptr, ptr }
%class.QString = type { ptr }
%class.RichParameterList = type { %"class.std::__cxx11::list.173" }
%"class.std::__cxx11::list.173" = type { %"class.std::__cxx11::_List_base.174" }
%"class.std::__cxx11::_List_base.174" = type { %"struct.std::__cxx11::_List_base<RichParameter *, std::allocator<RichParameter *>>::_List_impl" }
%"struct.std::__cxx11::_List_base<RichParameter *, std::allocator<RichParameter *>>::_List_impl" = type { %"struct.std::__detail::_List_node_header" }
%class.RichInt = type { %class.RichParameter }
%class.RichParameter = type { ptr, %class.QString, ptr, %class.QString, %class.QString, i8, i8, %class.QString }

@_ZN10QArrayData11shared_nullE = external global [2 x %struct.QArrayData], align 16
@.str.13 = private unnamed_addr constant [11 x i8] c"Resolution\00", align 1
@.str.18 = private unnamed_addr constant [16 x i8] c"Grid Resolution\00", align 1
@.str.19 = private unnamed_addr constant [70 x i8] c"Resolution of the side of the cubic grid used for the volume creation\00", align 1

; Function Attrs: mustprogress nounwind uwtable
define linkonce_odr noundef ptr @_ZN10QArrayData10sharedNullEv() #4 comdat align 2 {
  ret ptr @_ZN10QArrayData11shared_nullE
}

; Function Attrs: mustprogress nounwind uwtable
define linkonce_odr noundef ptr @_ZN15QTypedArrayDataItE10sharedNullEv() #4 comdat align 2 {
  %1 = call noundef ptr @_ZN10QArrayData10sharedNullEv() #3
  ret ptr %1
}

; Function Attrs: mustprogress nounwind uwtable
define linkonce_odr void @_ZN7QStringC2Ev(ptr noundef nonnull align 8 dereferenceable(8) %0) unnamed_addr #4 comdat align 2 {
  %2 = alloca ptr, align 8
  store ptr %0, ptr %2, align 8
  %3 = load ptr, ptr %2, align 8
  %4 = getelementptr inbounds %class.QString, ptr %3, i32 0, i32 0
  %5 = call noundef ptr @_ZN15QTypedArrayDataItE10sharedNullEv() #3
  store ptr %5, ptr %4, align 8
  ret void
}

; Function Attrs: mustprogress uwtable
define linkonce_odr void @_ZN7QStringC2EPKc(ptr noundef nonnull align 8 dereferenceable(8) %0, ptr noundef %1) unnamed_addr #5 comdat align 2 {
  %3 = alloca ptr, align 8
  %4 = alloca ptr, align 8
  store ptr %0, ptr %3, align 8
  store ptr %1, ptr %4, align 8
  %5 = load ptr, ptr %3, align 8
  %6 = getelementptr inbounds %class.QString, ptr %5, i32 0, i32 0
  %7 = load ptr, ptr %4, align 8
  %8 = load ptr, ptr %4, align 8
  %9 = icmp ne ptr %8, null
  br i1 %9, label %10, label %14

10:                                               ; preds = %2
  %11 = load ptr, ptr %4, align 8
  %12 = call i64 @strlen(ptr noundef %11) #24
  %13 = trunc i64 %12 to i32
  br label %15

14:                                               ; preds = %2
  br label %15

15:                                               ; preds = %14, %10
  %16 = phi i32 [ %13, %10 ], [ -1, %14 ]
  %17 = call noundef ptr @_ZN7QString16fromAscii_helperEPKci(ptr noundef %7, i32 noundef %16)
  store ptr %17, ptr %6, align 8
  ret void
}

; Function Attrs: mustprogress uwtable
define void @_ZN15FilterCreateIso17initParameterListEPK7QActionRK9MeshModel(ptr dead_on_unwind noalias writable sret(%class.RichParameterList) align 8 %0, ptr noundef nonnull align 8 dereferenceable(80) %1, ptr noundef %2, ptr noundef nonnull align 8 dereferenceable(1288) %3) unnamed_addr #5 align 2 personality ptr @__gxx_personality_v0 {
  %5 = alloca ptr, align 8
  %6 = alloca ptr, align 8
  %7 = alloca ptr, align 8
  %8 = alloca ptr, align 8
  %9 = alloca i1, align 1
  %10 = alloca ptr, align 8
  %11 = alloca i32, align 4
  %12 = alloca %class.RichInt, align 8
  %13 = alloca %class.QString, align 8
  %14 = alloca %class.QString, align 8
  %15 = alloca %class.QString, align 8
  %16 = alloca %class.QString, align 8
  store ptr %0, ptr %5, align 8
  store ptr %1, ptr %6, align 8
  store ptr %2, ptr %7, align 8
  store ptr %3, ptr %8, align 8
  %17 = load ptr, ptr %6, align 8
  store i1 false, ptr %9, align 1
  call void @_ZN17RichParameterListC1Ev(ptr noundef nonnull align 8 dereferenceable(24) %0)
  %18 = getelementptr inbounds i8, ptr %17, i64 16
  %19 = load ptr, ptr %7, align 8
  %20 = load ptr, ptr %18, align 8
  %21 = getelementptr inbounds ptr, ptr %20, i64 18
  %22 = load ptr, ptr %21, align 8
  %23 = invoke noundef i32 %22(ptr noundef nonnull align 8 dereferenceable(64) %18, ptr noundef %19)
          to label %24 unwind label %25

24:                                               ; preds = %4
  switch i32 %23, label %55 [
    i32 0, label %29
  ]

25:                                               ; preds = %29, %4
  %26 = landingpad { ptr, i32 }
          cleanup
  %27 = extractvalue { ptr, i32 } %26, 0
  store ptr %27, ptr %10, align 8
  %28 = extractvalue { ptr, i32 } %26, 1
  store i32 %28, ptr %11, align 4
  br label %60

29:                                               ; preds = %24
  invoke void @_ZN7QStringC2EPKc(ptr noundef nonnull align 8 dereferenceable(8) %13, ptr noundef @.str.13)
          to label %30 unwind label %25

30:                                               ; preds = %29
  invoke void @_ZN7QStringC2EPKc(ptr noundef nonnull align 8 dereferenceable(8) %14, ptr noundef @.str.18)
          to label %31 unwind label %36

31:                                               ; preds = %30
  invoke void @_ZN7QStringC2EPKc(ptr noundef nonnull align 8 dereferenceable(8) %15, ptr noundef @.str.19)
          to label %32 unwind label %40

32:                                               ; preds = %31
  call void @_ZN7QStringC2Ev(ptr noundef nonnull align 8 dereferenceable(8) %16) #3
  invoke void @_ZN7RichIntC1ERK7QStringiS2_S2_bS2_(ptr noundef nonnull align 8 dereferenceable(56) %12, ptr noundef nonnull align 8 dereferenceable(8) %13, i32 noundef 64, ptr noundef nonnull align 8 dereferenceable(8) %14, ptr noundef nonnull align 8 dereferenceable(8) %15, i1 noundef zeroext false, ptr noundef nonnull align 8 dereferenceable(8) %16)
          to label %33 unwind label %44

33:                                               ; preds = %32
  %34 = invoke noundef nonnull align 8 dereferenceable(56) ptr @_ZN17RichParameterList8addParamERK13RichParameter(ptr noundef nonnull align 8 dereferenceable(24) %0, ptr noundef nonnull align 8 dereferenceable(56) %12)
          to label %35 unwind label %48

35:                                               ; preds = %33
  call void @_ZN7RichIntD1Ev(ptr noundef nonnull align 8 dereferenceable(56) %12) #3
  call void @_ZN7QStringD2Ev(ptr noundef nonnull align 8 dereferenceable(8) %16) #3
  call void @_ZN7QStringD2Ev(ptr noundef nonnull align 8 dereferenceable(8) %15) #3
  call void @_ZN7QStringD2Ev(ptr noundef nonnull align 8 dereferenceable(8) %14) #3
  call void @_ZN7QStringD2Ev(ptr noundef nonnull align 8 dereferenceable(8) %13) #3
  br label %56

36:                                               ; preds = %30
  %37 = landingpad { ptr, i32 }
          cleanup
  %38 = extractvalue { ptr, i32 } %37, 0
  store ptr %38, ptr %10, align 8
  %39 = extractvalue { ptr, i32 } %37, 1
  store i32 %39, ptr %11, align 4
  br label %54

40:                                               ; preds = %31
  %41 = landingpad { ptr, i32 }
          cleanup
  %42 = extractvalue { ptr, i32 } %41, 0
  store ptr %42, ptr %10, align 8
  %43 = extractvalue { ptr, i32 } %41, 1
  store i32 %43, ptr %11, align 4
  br label %53

44:                                               ; preds = %32
  %45 = landingpad { ptr, i32 }
          cleanup
  %46 = extractvalue { ptr, i32 } %45, 0
  store ptr %46, ptr %10, align 8
  %47 = extractvalue { ptr, i32 } %45, 1
  store i32 %47, ptr %11, align 4
  br label %52

48:                                               ; preds = %33
  %49 = landingpad { ptr, i32 }
          cleanup
  %50 = extractvalue { ptr, i32 } %49, 0
  store ptr %50, ptr %10, align 8
  %51 = extractvalue { ptr, i32 } %49, 1
  store i32 %51, ptr %11, align 4
  call void @_ZN7RichIntD1Ev(ptr noundef nonnull align 8 dereferenceable(56) %12) #3
  br label %52

52:                                               ; preds = %48, %44
  call void @_ZN7QStringD2Ev(ptr noundef nonnull align 8 dereferenceable(8) %16) #3
  call void @_ZN7QStringD2Ev(ptr noundef nonnull align 8 dereferenceable(8) %15) #3
  br label %53

53:                                               ; preds = %52, %40
  call void @_ZN7QStringD2Ev(ptr noundef nonnull align 8 dereferenceable(8) %14) #3
  br label %54

54:                                               ; preds = %53, %36
  call void @_ZN7QStringD2Ev(ptr noundef nonnull align 8 dereferenceable(8) %13) #3
  br label %60

55:                                               ; preds = %24
  br label %56

56:                                               ; preds = %55, %35
  store i1 true, ptr %9, align 1
  %57 = load i1, ptr %9, align 1
  br i1 %57, label %59, label %58

58:                                               ; preds = %56
  call void @_ZN17RichParameterListD1Ev(ptr noundef nonnull align 8 dereferenceable(24) %0) #3
  br label %59

59:                                               ; preds = %58, %56
  ret void

60:                                               ; preds = %54, %25
  call void @_ZN17RichParameterListD1Ev(ptr noundef nonnull align 8 dereferenceable(24) %0) #3
  br label %61

61:                                               ; preds = %60
  %62 = load ptr, ptr %10, align 8
  %63 = load i32, ptr %11, align 4
  %64 = insertvalue { ptr, i32 } poison, ptr %62, 0
  %65 = insertvalue { ptr, i32 } %64, i32 %63, 1
  resume { ptr, i32 } %65
}