; Function Attrs: mustprogress uwtable
define void @_ZN15FilterCreateIso17initParameterListEPK7QActionRK9MeshModel(ptr dead_on_unwind noalias nonnull writable sret(%class.RichParameterList) align 8 %0, ptr noundef nonnull align 8 dereferenceable(80) %1, ptr noundef %2, ptr nocapture nonnull readnone align 8 %3) unnamed_addr #9 align 2 personality ptr @__gxx_personality_v0 {
  %5 = alloca %class.RichInt, align 8
  %6 = alloca %class.QString, align 8
  %7 = alloca %class.QString, align 8
  %8 = alloca %class.QString, align 8
  %9 = alloca %class.QString, align 8
  tail call void @_ZN17RichParameterListC1Ev(ptr noundef nonnull align 8 dereferenceable(24) %0)
  %10 = getelementptr inbounds i8, ptr %1, i64 16
  %11 = load ptr, ptr %10, align 8
  %12 = getelementptr inbounds i8, ptr %11, i64 144
  %13 = load ptr, ptr %12, align 8
  %14 = invoke noundef i32 %13(ptr noundef nonnull align 8 dereferenceable(64) %10, ptr noundef %2)
          to label %15 unwind label %16

15:                                               ; preds = %4
  %cond = icmp eq i32 %14, 0
  br i1 %cond, label %18, label %_ZN7QStringD2Ev.exit31

16:                                               ; preds = %18, %4
  %17 = landingpad { ptr, i32 }
          cleanup
  br label %55

18:                                               ; preds = %15
  %19 = invoke noundef ptr @_ZN7QString16fromAscii_helperEPKci(ptr noundef nonnull @.str.13, i32 noundef 10)
          to label %20 unwind label %16

20:                                               ; preds = %18
  store ptr %19, ptr %6, align 8
  %21 = invoke noundef ptr @_ZN7QString16fromAscii_helperEPKci(ptr noundef nonnull @.str.18, i32 noundef 15)
          to label %22 unwind label %44

22:                                               ; preds = %20
  store ptr %21, ptr %7, align 8
  %23 = invoke noundef ptr @_ZN7QString16fromAscii_helperEPKci(ptr noundef nonnull @.str.19, i32 noundef 69)
          to label %24 unwind label %46

24:                                               ; preds = %22
  store ptr %23, ptr %8, align 8
  store ptr @_ZN10QArrayData11shared_nullE, ptr %9, align 8
  invoke void @_ZN7RichIntC1ERK7QStringiS2_S2_bS2_(ptr noundef nonnull align 8 dereferenceable(56) %5, ptr noundef nonnull align 8 dereferenceable(8) %6, i32 noundef 64, ptr noundef nonnull align 8 dereferenceable(8) %7, ptr noundef nonnull align 8 dereferenceable(8) %8, i1 noundef zeroext false, ptr noundef nonnull align 8 dereferenceable(8) %9)
          to label %25 unwind label %48

25:                                               ; preds = %24
  %26 = invoke noundef nonnull align 8 dereferenceable(56) ptr @_ZN17RichParameterList8addParamERK13RichParameter(ptr noundef nonnull align 8 dereferenceable(24) %0, ptr noundef nonnull align 8 dereferenceable(56) %5)
          to label %27 unwind label %50

27:                                               ; preds = %25
  call void @_ZN7RichIntD1Ev(ptr noundef nonnull align 8 dereferenceable(56) %5) #23
  %28 = load ptr, ptr %9, align 8
  %29 = load atomic i32, ptr %28 monotonic, align 4
  switch i32 %29, label %_ZN9QtPrivate8RefCount5derefEv.exit.i [
    i32 0, label %_ZN9QtPrivate8RefCount5derefEv.exit.thread2.i
    i32 -1, label %_ZN7QStringD2Ev.exit
  ]

_ZN9QtPrivate8RefCount5derefEv.exit.i:            ; preds = %27
  %30 = atomicrmw sub ptr %28, i32 1 seq_cst, align 4
  %.not.i = icmp eq i32 %30, 1
  br i1 %.not.i, label %_ZN9QtPrivate8RefCount5derefEv.exit._ZN9QtPrivate8RefCount5derefEv.exit.thread2_crit_edge.i, label %_ZN7QStringD2Ev.exit

_ZN9QtPrivate8RefCount5derefEv.exit._ZN9QtPrivate8RefCount5derefEv.exit.thread2_crit_edge.i: ; preds = %_ZN9QtPrivate8RefCount5derefEv.exit.i
  %.pre.i = load ptr, ptr %9, align 8
  br label %_ZN9QtPrivate8RefCount5derefEv.exit.thread2.i

_ZN9QtPrivate8RefCount5derefEv.exit.thread2.i:    ; preds = %_ZN9QtPrivate8RefCount5derefEv.exit._ZN9QtPrivate8RefCount5derefEv.exit.thread2_crit_edge.i, %27
  %31 = phi ptr [ %.pre.i, %_ZN9QtPrivate8RefCount5derefEv.exit._ZN9QtPrivate8RefCount5derefEv.exit.thread2_crit_edge.i ], [ %28, %27 ]
  call void @_ZN10QArrayData10deallocateEPS_mm(ptr noundef %31, i64 noundef 2, i64 noundef 8) #23
  br label %_ZN7QStringD2Ev.exit

_ZN7QStringD2Ev.exit:                             ; preds = %27, %_ZN9QtPrivate8RefCount5derefEv.exit.i, %_ZN9QtPrivate8RefCount5derefEv.exit.thread2.i
  %32 = load ptr, ptr %8, align 8
  %33 = load atomic i32, ptr %32 monotonic, align 4
  switch i32 %33, label %_ZN9QtPrivate8RefCount5derefEv.exit.i15 [
    i32 0, label %_ZN9QtPrivate8RefCount5derefEv.exit.thread2.i14
    i32 -1, label %_ZN7QStringD2Ev.exit19
  ]

_ZN9QtPrivate8RefCount5derefEv.exit.i15:          ; preds = %_ZN7QStringD2Ev.exit
  %34 = atomicrmw sub ptr %32, i32 1 seq_cst, align 4
  %.not.i16 = icmp eq i32 %34, 1
  br i1 %.not.i16, label %_ZN9QtPrivate8RefCount5derefEv.exit._ZN9QtPrivate8RefCount5derefEv.exit.thread2_crit_edge.i17, label %_ZN7QStringD2Ev.exit19

_ZN9QtPrivate8RefCount5derefEv.exit._ZN9QtPrivate8RefCount5derefEv.exit.thread2_crit_edge.i17: ; preds = %_ZN9QtPrivate8RefCount5derefEv.exit.i15
  %.pre.i18 = load ptr, ptr %8, align 8
  br label %_ZN9QtPrivate8RefCount5derefEv.exit.thread2.i14

_ZN9QtPrivate8RefCount5derefEv.exit.thread2.i14:  ; preds = %_ZN9QtPrivate8RefCount5derefEv.exit._ZN9QtPrivate8RefCount5derefEv.exit.thread2_crit_edge.i17, %_ZN7QStringD2Ev.exit
  %35 = phi ptr [ %.pre.i18, %_ZN9QtPrivate8RefCount5derefEv.exit._ZN9QtPrivate8RefCount5derefEv.exit.thread2_crit_edge.i17 ], [ %32, %_ZN7QStringD2Ev.exit ]
  call void @_ZN10QArrayData10deallocateEPS_mm(ptr noundef %35, i64 noundef 2, i64 noundef 8) #23
  br label %_ZN7QStringD2Ev.exit19

_ZN7QStringD2Ev.exit19:                           ; preds = %_ZN7QStringD2Ev.exit, %_ZN9QtPrivate8RefCount5derefEv.exit.i15, %_ZN9QtPrivate8RefCount5derefEv.exit.thread2.i14
  %36 = load ptr, ptr %7, align 8
  %37 = load atomic i32, ptr %36 monotonic, align 4
  switch i32 %37, label %_ZN9QtPrivate8RefCount5derefEv.exit.i21 [
    i32 0, label %_ZN9QtPrivate8RefCount5derefEv.exit.thread2.i20
    i32 -1, label %_ZN7QStringD2Ev.exit25
  ]

_ZN9QtPrivate8RefCount5derefEv.exit.i21:          ; preds = %_ZN7QStringD2Ev.exit19
  %38 = atomicrmw sub ptr %36, i32 1 seq_cst, align 4
  %.not.i22 = icmp eq i32 %38, 1
  br i1 %.not.i22, label %_ZN9QtPrivate8RefCount5derefEv.exit._ZN9QtPrivate8RefCount5derefEv.exit.thread2_crit_edge.i23, label %_ZN7QStringD2Ev.exit25

_ZN9QtPrivate8RefCount5derefEv.exit._ZN9QtPrivate8RefCount5derefEv.exit.thread2_crit_edge.i23: ; preds = %_ZN9QtPrivate8RefCount5derefEv.exit.i21
  %.pre.i24 = load ptr, ptr %7, align 8
  br label %_ZN9QtPrivate8RefCount5derefEv.exit.thread2.i20

_ZN9QtPrivate8RefCount5derefEv.exit.thread2.i20:  ; preds = %_ZN9QtPrivate8RefCount5derefEv.exit._ZN9QtPrivate8RefCount5derefEv.exit.thread2_crit_edge.i23, %_ZN7QStringD2Ev.exit19
  %39 = phi ptr [ %.pre.i24, %_ZN9QtPrivate8RefCount5derefEv.exit._ZN9QtPrivate8RefCount5derefEv.exit.thread2_crit_edge.i23 ], [ %36, %_ZN7QStringD2Ev.exit19 ]
  call void @_ZN10QArrayData10deallocateEPS_mm(ptr noundef %39, i64 noundef 2, i64 noundef 8) #23
  br label %_ZN7QStringD2Ev.exit25

_ZN7QStringD2Ev.exit25:                           ; preds = %_ZN7QStringD2Ev.exit19, %_ZN9QtPrivate8RefCount5derefEv.exit.i21, %_ZN9QtPrivate8RefCount5derefEv.exit.thread2.i20
  %40 = load ptr, ptr %6, align 8
  %41 = load atomic i32, ptr %40 monotonic, align 4
  switch i32 %41, label %_ZN9QtPrivate8RefCount5derefEv.exit.i27 [
    i32 0, label %_ZN9QtPrivate8RefCount5derefEv.exit.thread2.i26
    i32 -1, label %_ZN7QStringD2Ev.exit31
  ]

_ZN9QtPrivate8RefCount5derefEv.exit.i27:          ; preds = %_ZN7QStringD2Ev.exit25
  %42 = atomicrmw sub ptr %40, i32 1 seq_cst, align 4
  %.not.i28 = icmp eq i32 %42, 1
  br i1 %.not.i28, label %_ZN9QtPrivate8RefCount5derefEv.exit._ZN9QtPrivate8RefCount5derefEv.exit.thread2_crit_edge.i29, label %_ZN7QStringD2Ev.exit31

_ZN9QtPrivate8RefCount5derefEv.exit._ZN9QtPrivate8RefCount5derefEv.exit.thread2_crit_edge.i29: ; preds = %_ZN9QtPrivate8RefCount5derefEv.exit.i27
  %.pre.i30 = load ptr, ptr %6, align 8
  br label %_ZN9QtPrivate8RefCount5derefEv.exit.thread2.i26

_ZN9QtPrivate8RefCount5derefEv.exit.thread2.i26:  ; preds = %_ZN9QtPrivate8RefCount5derefEv.exit._ZN9QtPrivate8RefCount5derefEv.exit.thread2_crit_edge.i29, %_ZN7QStringD2Ev.exit25
  %43 = phi ptr [ %.pre.i30, %_ZN9QtPrivate8RefCount5derefEv.exit._ZN9QtPrivate8RefCount5derefEv.exit.thread2_crit_edge.i29 ], [ %40, %_ZN7QStringD2Ev.exit25 ]
  call void @_ZN10QArrayData10deallocateEPS_mm(ptr noundef %43, i64 noundef 2, i64 noundef 8) #23
  br label %_ZN7QStringD2Ev.exit31

44:                                               ; preds = %20
  %45 = landingpad { ptr, i32 }
          cleanup
  br label %54

46:                                               ; preds = %22
  %47 = landingpad { ptr, i32 }
          cleanup
  br label %53

48:                                               ; preds = %24
  %49 = landingpad { ptr, i32 }
          cleanup
  br label %52

50:                                               ; preds = %25
  %51 = landingpad { ptr, i32 }
          cleanup
  call void @_ZN7RichIntD1Ev(ptr noundef nonnull align 8 dereferenceable(56) %5) #23
  br label %52

52:                                               ; preds = %50, %48
  %.pn = phi { ptr, i32 } [ %51, %50 ], [ %49, %48 ]
  call void @_ZN7QStringD2Ev(ptr noundef nonnull align 8 dereferenceable(8) %9) #23
  call void @_ZN7QStringD2Ev(ptr noundef nonnull align 8 dereferenceable(8) %8) #23
  br label %53

53:                                               ; preds = %52, %46
  %.pn.pn = phi { ptr, i32 } [ %.pn, %52 ], [ %47, %46 ]
  call void @_ZN7QStringD2Ev(ptr noundef nonnull align 8 dereferenceable(8) %7) #23
  br label %54

54:                                               ; preds = %53, %44
  %.pn.pn.pn = phi { ptr, i32 } [ %.pn.pn, %53 ], [ %45, %44 ]
  call void @_ZN7QStringD2Ev(ptr noundef nonnull align 8 dereferenceable(8) %6) #23
  br label %55

_ZN7QStringD2Ev.exit31:                           ; preds = %_ZN9QtPrivate8RefCount5derefEv.exit.thread2.i26, %_ZN9QtPrivate8RefCount5derefEv.exit.i27, %_ZN7QStringD2Ev.exit25, %15
  ret void

55:                                               ; preds = %54, %16
  %.pn.pn.pn.pn = phi { ptr, i32 } [ %.pn.pn.pn, %54 ], [ %17, %16 ]
  call void @_ZN17RichParameterListD1Ev(ptr noundef nonnull align 8 dereferenceable(24) %0) #23
  resume { ptr, i32 } %.pn.pn.pn.pn
}